target datalayout = "e-m:e-p270:32:32-p271:32:32-p272:64:64-i64:64-i128:128-f80:128-n8:16:32:64-S128"
target triple = "x86_64-pc-linux-gnu"

%"class.clang::APValue" = type { i32, [4 x i8], %"struct.llvm::AlignedCharArrayUnion" }
%"struct.llvm::AlignedCharArrayUnion" = type { [64 x i8] }
%class.anon.630 = type { i8 }
%"struct.clang::APValue::StructData" = type { ptr, i32, i32 }

; Function Attrs: mustprogress nounwind uwtable
define linkonce_odr hidden noundef i32 @_ZNK5clang7APValue17getStructNumBasesEv(ptr noundef nonnull align 8 dereferenceable(72) %0) #0 comdat align 2 {
  %2 = alloca ptr, align 8
  store ptr %0, ptr %2, align 8
  %3 = load ptr, ptr %2, align 8
  %4 = getelementptr inbounds nuw %"class.clang::APValue", ptr %3, i32 0, i32 2
  %5 = getelementptr inbounds nuw %"struct.clang::APValue::StructData", ptr %4, i32 0, i32 1
  %6 = load i32, ptr %5, align 8
  ret i32 %6
}

; Function Attrs: mustprogress nounwind uwtable
define linkonce_odr hidden noundef nonnull align 8 dereferenceable(72) ptr @_ZN5clang7APValue14getStructFieldEj(ptr noundef nonnull align 8 dereferenceable(72) %0, i32 noundef %1) #0 comdat align 2 {
  %3 = alloca ptr, align 8
  %4 = alloca i32, align 4
  store ptr %0, ptr %3, align 8
  store i32 %1, ptr %4, align 4
  %5 = load ptr, ptr %3, align 8
  %6 = getelementptr inbounds nuw %"class.clang::APValue", ptr %5, i32 0, i32 2
  %7 = getelementptr inbounds nuw %"struct.clang::APValue::StructData", ptr %6, i32 0, i32 0
  %8 = load ptr, ptr %7, align 8
  %9 = call noundef i32 @_ZNK5clang7APValue17getStructNumBasesEv(ptr noundef nonnull align 8 dereferenceable(72) %5)
  %10 = load i32, ptr %4, align 4
  %11 = add i32 %9, %10
  %12 = zext i32 %11 to i64
  %13 = getelementptr inbounds %"class.clang::APValue", ptr %8, i64 %12
  ret ptr %13
}

; Function Attrs: mustprogress nounwind uwtable
define linkonce_odr hidden noundef nonnull align 8 dereferenceable(72) ptr @_ZNK5clang7APValue14getStructFieldEj(ptr noundef nonnull align 8 dereferenceable(72) %0, i32 noundef %1) #0 comdat align 2 {
  %3 = alloca ptr, align 8
  %4 = alloca i32, align 4
  store ptr %0, ptr %3, align 8
  store i32 %1, ptr %4, align 4
  %5 = load ptr, ptr %3, align 8
  %6 = load i32, ptr %4, align 4
  %7 = call noundef nonnull align 8 dereferenceable(72) ptr @_ZN5clang7APValue14getStructFieldEj(ptr noundef nonnull align 8 dereferenceable(72) %5, i32 noundef %6)
  ret ptr %7
}

; Function Attrs: mustprogress nounwind uwtable
define internal noundef nonnull align 8 dereferenceable(72) ptr @"_ZZN5clang14TextNodeDumper5VisitERKNS_7APValueENS_8QualTypeEENK3$_4clES3_j"(ptr noundef nonnull align 1 dereferenceable(1) %0, ptr noundef nonnull align 8 dereferenceable(72) %1, i32 noundef %2) #0 align 2 {
  %4 = alloca ptr, align 8
  %5 = alloca ptr, align 8
  %6 = alloca i32, align 4
  store ptr %0, ptr %4, align 8
  store ptr %1, ptr %5, align 8
  store i32 %2, ptr %6, align 4
  %7 = load ptr, ptr %5, align 8
  %8 = load i32, ptr %6, align 4
  %9 = call noundef nonnull align 8 dereferenceable(72) ptr @_ZNK5clang7APValue14getStructFieldEj(ptr noundef nonnull align 8 dereferenceable(72) %7, i32 noundef %8)
  ret ptr %9
}

; Function Attrs: mustprogress nounwind uwtable
define internal noundef nonnull align 8 dereferenceable(72) ptr @"_ZZN5clang14TextNodeDumper5VisitERKNS_7APValueENS_8QualTypeEEN3$_48__invokeES3_j"(ptr noundef nonnull align 8 dereferenceable(72) %0, i32 noundef %1) #0 align 2 {
  %3 = alloca ptr, align 8
  %4 = alloca i32, align 4
  %5 = alloca %class.anon.630, align 1
  store ptr %0, ptr %3, align 8
  store i32 %1, ptr %4, align 4
  %6 = load ptr, ptr %3, align 8
  %7 = load i32, ptr %4, align 4
  %8 = call noundef nonnull align 8 dereferenceable(72) ptr @"_ZZN5clang14TextNodeDumper5VisitERKNS_7APValueENS_8QualTypeEENK3$_4clES3_j"(ptr noundef nonnull align 1 dereferenceable(1) %5, ptr noundef nonnull align 8 dereferenceable(72) %6, i32 noundef %7)
  ret ptr %8
}