; Function Attrs: mustprogress nofree norecurse nosync nounwind willreturn memory(argmem: read) uwtable
define internal noundef nonnull align 8 dereferenceable(72) ptr @"_ZZN5clang14TextNodeDumper5VisitERKNS_7APValueENS_8QualTypeEEN3$_48__invokeES3_j"(ptr nocapture noundef nonnull readonly align 8 dereferenceable(72) %0, i32 noundef %1) #10 align 2 {
  %3 = getelementptr inbounds i8, ptr %0, i64 8
  %.val = load ptr, ptr %3, align 8
  %4 = getelementptr inbounds i8, ptr %0, i64 16
  %.val1 = load i32, ptr %4, align 8
  %5 = add i32 %.val1, %1
  %6 = zext i32 %5 to i64
  %7 = getelementptr inbounds %"class.clang::APValue", ptr %.val, i64 %6
  ret ptr %7
}